target datalayout = "e-m:e-p270:32:32-p271:32:32-p272:64:64-i64:64-i128:128-f80:128-n8:16:32:64-S128"
target triple = "x86_64-pc-linux-gnu"

%struct.ec_key_method_st = type { ptr, i32, ptr, ptr, ptr, ptr, ptr, ptr, ptr, ptr, ptr, ptr, ptr, ptr, ptr }

; Function Attrs: nounwind uwtable
define void @EC_KEY_METHOD_set_init(ptr noundef %0, ptr noundef %1, ptr noundef %2, ptr noundef %3, ptr noundef %4, ptr noundef %5, ptr noundef %6) #0 {
  %8 = alloca ptr, align 8
  %9 = alloca ptr, align 8
  %10 = alloca ptr, align 8
  %11 = alloca ptr, align 8
  %12 = alloca ptr, align 8
  %13 = alloca ptr, align 8
  %14 = alloca ptr, align 8
  store ptr %0, ptr %8, align 8, !tbaa !3
  store ptr %1, ptr %9, align 8, !tbaa !25
  store ptr %2, ptr %10, align 8, !tbaa !25
  store ptr %3, ptr %11, align 8, !tbaa !25
  store ptr %4, ptr %12, align 8, !tbaa !25
  store ptr %5, ptr %13, align 8, !tbaa !25
  store ptr %6, ptr %14, align 8, !tbaa !25
  %15 = load ptr, ptr %9, align 8, !tbaa !25
  %16 = load ptr, ptr %8, align 8, !tbaa !3
  %17 = getelementptr inbounds nuw %struct.ec_key_method_st, ptr %16, i32 0, i32 2
  store ptr %15, ptr %17, align 8, !tbaa !27
  %18 = load ptr, ptr %10, align 8, !tbaa !25
  %19 = load ptr, ptr %8, align 8, !tbaa !3
  %20 = getelementptr inbounds nuw %struct.ec_key_method_st, ptr %19, i32 0, i32 3
  store ptr %18, ptr %20, align 8, !tbaa !23
  %21 = load ptr, ptr %11, align 8, !tbaa !25
  %22 = load ptr, ptr %8, align 8, !tbaa !3
  %23 = getelementptr inbounds nuw %struct.ec_key_method_st, ptr %22, i32 0, i32 4
  store ptr %21, ptr %23, align 8, !tbaa !42
  %24 = load ptr, ptr %12, align 8, !tbaa !25
  %25 = load ptr, ptr %8, align 8, !tbaa !3
  %26 = getelementptr inbounds nuw %struct.ec_key_method_st, ptr %25, i32 0, i32 5
  store ptr %24, ptr %26, align 8, !tbaa !43
  %27 = load ptr, ptr %13, align 8, !tbaa !25
  %28 = load ptr, ptr %8, align 8, !tbaa !3
  %29 = getelementptr inbounds nuw %struct.ec_key_method_st, ptr %28, i32 0, i32 6
  store ptr %27, ptr %29, align 8, !tbaa !44
  %30 = load ptr, ptr %14, align 8, !tbaa !25
  %31 = load ptr, ptr %8, align 8, !tbaa !3
  %32 = getelementptr inbounds nuw %struct.ec_key_method_st, ptr %31, i32 0, i32 7
  store ptr %30, ptr %32, align 8, !tbaa !45
  ret void
}