; Function Attrs: mustprogress nofree norecurse nosync nounwind willreturn memory(argmem: write) uwtable
define void @EC_KEY_METHOD_set_init(ptr noundef writeonly captures(none) initializes((16, 64)) %0, ptr noundef %1, ptr noundef %2, ptr noundef %3, ptr noundef %4, ptr noundef %5, ptr noundef %6) local_unnamed_addr #8 {
  %8 = getelementptr inbounds nuw i8, ptr %0, i64 16
  store ptr %1, ptr %8, align 8, !tbaa !24
  %9 = getelementptr inbounds nuw i8, ptr %0, i64 24
  store ptr %2, ptr %9, align 8, !tbaa !21
  %10 = getelementptr inbounds nuw i8, ptr %0, i64 32
  store ptr %3, ptr %10, align 8, !tbaa !37
  %11 = getelementptr inbounds nuw i8, ptr %0, i64 40
  store ptr %4, ptr %11, align 8, !tbaa !38
  %12 = getelementptr inbounds nuw i8, ptr %0, i64 48
  store ptr %5, ptr %12, align 8, !tbaa !39
  %13 = getelementptr inbounds nuw i8, ptr %0, i64 56
  store ptr %6, ptr %13, align 8, !tbaa !40
  ret void
}